; Function Attrs: mustprogress nofree norecurse nosync nounwind memory(read, argmem: readwrite, inaccessiblemem: none) uwtable
define void @_ZN6LibRaw18dcb_copy_to_bufferEPA3_f(ptr noundef nonnull readonly align 8 captures(none) dereferenceable(767680) %0, ptr noundef writeonly captures(none) %1) local_unnamed_addr #0 align 2 {
  %3 = getelementptr inbounds nuw i8, ptr %0, i64 20
  %4 = load i16, ptr %3, align 4, !tbaa !71
  %5 = zext i16 %4 to i32
  %6 = getelementptr inbounds nuw i8, ptr %0, i64 22
  %7 = load i16, ptr %6, align 2, !tbaa !6
  %8 = zext i16 %7 to i32
  %9 = mul nuw nsw i32 %8, %5
  %.not = icmp eq i32 %9, 0
  br i1 %.not, label %._crit_edge, label %.lr.ph

.lr.ph:                                           ; preds = %2
  %10 = getelementptr inbounds nuw i8, ptr %0, i64 8
  %11 = load ptr, ptr %10, align 8, !tbaa !94
  %wide.trip.count = zext nneg i32 %9 to i64
  br label %12

12:                                               ; preds = %.lr.ph, %12
  %indvars.iv = phi i64 [ 0, %.lr.ph ], [ %indvars.iv.next, %12 ]
  %13 = getelementptr inbounds nuw [4 x i16], ptr %11, i64 %indvars.iv
  %14 = load i16, ptr %13, align 2, !tbaa !73
  %15 = uitofp i16 %14 to float
  %16 = getelementptr inbounds nuw [3 x float], ptr %1, i64 %indvars.iv
  store float %15, ptr %16, align 4, !tbaa !74
  %17 = getelementptr inbounds nuw [4 x i16], ptr %11, i64 %indvars.iv, i64 2
  %18 = load i16, ptr %17, align 2, !tbaa !73
  %19 = uitofp i16 %18 to float
  %20 = getelementptr inbounds nuw i8, ptr %16, i64 8
  store float %19, ptr %20, align 4, !tbaa !74
  %indvars.iv.next = add nuw nsw i64 %indvars.iv, 1
  %exitcond.not = icmp eq i64 %indvars.iv.next, %wide.trip.count
  br i1 %exitcond.not, label %._crit_edge, label %12, !llvm.loop !95

._crit_edge:                                      ; preds = %12, %2
  ret void
}